(cnumpy.core.multiarray
_reconstruct
p0
(cnumpy
ndarray
p1
(I0
tp2
S'b'
p3
tp4
Rp5
(I1
(I3
tp6
cnumpy
dtype
p7
(S'f8'
p8
I0
I1
tp9
Rp10
(I3
S'<'
p11
NNNI-1
I-1
I0
tp12
bI00
S'\x97\x96\x96\x96\x96\xb6b@xxxxxxL@iiiiiiV@'
p13
tp14
bg0
(g1
(I0
tp15
g3
tp16
Rp17
(I1
(I3
tp18
g10
I00
S'<\xe8r\xffh\x8e@@\xb3\x10\xad{\xb4\xe41@\xa5\xab\x85\x9at49@'
p19
tp20
btp21
.