(dp0
S'DRC Strength'
p1
I0
sS'Saturation'
p2
I0
sS'AWB Red Gain'
p3
I0
sS'Brightness'
p4
I0
sS'Exp Meter Mode'
p5
I0
sS'Sharpness'
p6
I0
sS'AWB Mode'
p7
I0
sS'Shutter Speed'
p8
I0
sS'ISO'
p9
I7
sS'Exposure Mode'
p10
I0
sS'AWB Blue Gain'
p11
I0
sS'Exp Compensation'
p12
I0
sS'Contrast'
p13
I0
s.