((lp0
cnumpy.core.multiarray
_reconstruct
p1
(cnumpy
ndarray
p2
(I0
tp3
S'b'
p4
tp5
Rp6
(I1
(I3
tp7
cnumpy
dtype
p8
(S'f4'
p9
I0
I1
tp10
Rp11
(I3
S'<'
p12
NNNI-1
I-1
I0
tp13
bI00
S'\r\xbc"Bd)9C\x92B\x16C'
p14
tp15
bag1
(g2
(I0
tp16
g4
tp17
Rp18
(I1
(I3
tp19
g11
I00
S'P\xd4\xcaB\xd6o\x87BJ\x8f\xbbB'
p20
tp21
bag1
(g2
(I0
tp22
g4
tp23
Rp24
(I1
(I3
tp25
g11
I00
S'\xaahqB\xdc\x97YB\xe7\x9d\xe6B'
p26
tp27
bag1
(g2
(I0
tp28
g4
tp29
Rp30
(I1
(I3
tp31
g11
I00
S'\x11\x89\x1cB\xb6\xdcTC\xf0\x021C'
p32
tp33
bag1
(g2
(I0
tp34
g4
tp35
Rp36
(I1
(I3
tp37
g11
I00
S'\x0eUmB\xc4AMB\x82\xc2\x13C'
p38
tp39
bag1
(g2
(I0
tp40
g4
tp41
Rp42
(I1
(I3
tp43
g11
I00
S'Vu BB\x19%C\xc0O=C'
p44
tp45
bag1
(g2
(I0
tp46
g4
tp47
Rp48
(I1
(I3
tp49
g11
I00
S'\xee\xeb$B\xe5\xb7\xe6Bs\xe3GC'
p50
tp51
bag1
(g2
(I0
tp52
g4
tp53
Rp54
(I1
(I3
tp55
g11
I00
S'\xca\xcb\x14Cl\xa8xB\xf3:6C'
p56
tp57
bag1
(g2
(I0
tp58
g4
tp59
Rp60
(I1
(I3
tp61
g11
I00
S'\x0b("B\xf6\x14\x03C\xdc=\tC'
p62
tp63
bag1
(g2
(I0
tp64
g4
tp65
Rp66
(I1
(I3
tp67
g11
I00
S'G\xb6\x19@K\xe8k>\xca\x9ehC'
p68
tp69
bag1
(g2
(I0
tp70
g4
tp71
Rp72
(I1
(I3
tp73
g11
I00
S't\xd7FBho\x93B4\xb4\xf9B'
p74
tp75
bag1
(g2
(I0
tp76
g4
tp77
Rp78
(I1
(I3
tp79
g11
I00
S'\x03\xca\x81BB(eB7\xeb\xbbB'
p80
tp81
bag1
(g2
(I0
tp82
g4
tp83
Rp84
(I1
(I3
tp85
g11
I00
S'\xeb\xea\xeeA\xfa\xf9xB\xf4\xf3\xa5B'
p86
tp87
bag1
(g2
(I0
tp88
g4
tp89
Rp90
(I1
(I3
tp91
g11
I00
S'\xf8\xd0\x97B\xce\x90mB\xf5\xe4\x86B'
p92
tp93
bag1
(g2
(I0
tp94
g4
tp95
Rp96
(I1
(I3
tp97
g11
I00
S'\x93K\x14CU`\tC\xe8m7C'
p98
tp99
bag1
(g2
(I0
tp100
g4
tp101
Rp102
(I1
(I3
tp103
g11
I00
S'\xe0H\x8dB4;\x8cAg\xc4bC'
p104
tp105
ba(lp106
g1
(g2
(I0
tp107
g4
tp108
Rp109
(I1
(I3
tp110
g11
I00
S'\xf1\xff.@\x8cusA\xd5\x15\x83A'
p111
tp112
bag1
(g2
(I0
tp113
g4
tp114
Rp115
(I1
(I3
tp116
g11
I00
S"\xa6'\x85A1\xd3\x86A\xda\x9dlA"
p117
tp118
bag1
(g2
(I0
tp119
g4
tp120
Rp121
(I1
(I3
tp122
g11
I00
S'\xdb\xe6\x90@w\xa4\x89@\xfc\xfe\xf6@'
p123
tp124
bag1
(g2
(I0
tp125
g4
tp126
Rp127
(I1
(I3
tp128
g11
I00
S'\x08V\xe0?,l\x84A\x07\xf47A'
p129
tp130
bag1
(g2
(I0
tp131
g4
tp132
Rp133
(I1
(I3
tp134
g11
I00
S'\x04"\xe1@\x04k\xe1@w\xefLA'
p135
tp136
bag1
(g2
(I0
tp137
g4
tp138
Rp139
(I1
(I3
tp140
g11
I00
S',\x13\x18@\x98\x15YA\x9a/9A'
p141
tp142
bag1
(g2
(I0
tp143
g4
tp144
Rp145
(I1
(I3
tp146
g11
I00
S'\xc05Q@\xdb_\x8cA%PCA'
p147
tp148
bag1
(g2
(I0
tp149
g4
tp150
Rp151
(I1
(I3
tp152
g11
I00
S'\xf2\xd7\x18A\xce\x11\xdeA\x13Y\x16B'
p153
tp154
bag1
(g2
(I0
tp155
g4
tp156
Rp157
(I1
(I3
tp158
g11
I00
S'\xe4\n\x83@\xb9\xf3zA+\xe2\x9bA'
p159
tp160
bag1
(g2
(I0
tp161
g4
tp162
Rp163
(I1
(I3
tp164
g11
I00
S'*\xe5V@\x97P8?\xc6"\x12?'
p165
tp166
bag1
(g2
(I0
tp167
g4
tp168
Rp169
(I1
(I3
tp170
g11
I00
S'\xf0\xea\xa2@>\x94\x0fA\xa2\x97AA'
p171
tp172
bag1
(g2
(I0
tp173
g4
tp174
Rp175
(I1
(I3
tp176
g11
I00
S'\xba\x05\x9f@\x94\xc8\x9d@f\x1e\xd3@'
p177
tp178
bag1
(g2
(I0
tp179
g4
tp180
Rp181
(I1
(I3
tp182
g11
I00
S'\xe1b\x07A%\x0c\x9dA\xd0\x90ZA'
p183
tp184
bag1
(g2
(I0
tp185
g4
tp186
Rp187
(I1
(I3
tp188
g11
I00
S'\xacs\xf9@Ce\x19A8\x87\rA'
p189
tp190
bag1
(g2
(I0
tp191
g4
tp192
Rp193
(I1
(I3
tp194
g11
I00
S'Fu\xb9@\xc2\x1b\x98A\xba\x10\xc5A'
p195
tp196
bag1
(g2
(I0
tp197
g4
tp198
Rp199
(I1
(I3
tp200
g11
I00
S'\x02\x1b\x07A\x1f\x14\x04Ao~,A'
p201
tp202
bac__builtin__
set
p203
((lp204
cnumpy.core.multiarray
scalar
p205
(g8
(S'i4'
p206
I0
I1
tp207
Rp208
(I3
S'<'
p209
NNNI-1
I-1
I0
tp210
bS'\x00\x00\x00\x00'
p211
tp212
Rp213
ag205
(g208
S'\x03\x00\x00\x00'
p214
tp215
Rp216
ag205
(g208
S'\x05\x00\x00\x00'
p217
tp218
Rp219
ag205
(g208
S'\x06\x00\x00\x00'
p220
tp221
Rp222
ag205
(g208
S'\x07\x00\x00\x00'
p223
tp224
Rp225
ag205
(g208
S'\x08\x00\x00\x00'
p226
tp227
Rp228
ag205
(g208
S'\x0c\x00\x00\x00'
p229
tp230
Rp231
atp232
Rp233
g203
((lp234
I1
aI2
aI4
aI9
aI10
aI11
aI13
aI14
aI15
atp235
Rp236
tp237
.