((lp0
cnumpy.core.multiarray
_reconstruct
p1
(cnumpy
ndarray
p2
(I0
tp3
S'b'
p4
tp5
Rp6
(I1
(I3
tp7
cnumpy
dtype
p8
(S'f4'
p9
I0
I1
tp10
Rp11
(I3
S'<'
p12
NNNI-1
I-1
I0
tp13
bI00
S'\x19\x8b.B\xe4\xbe\xc3B\xb69[B'
p14
tp15
bag1
(g2
(I0
tp16
g4
tp17
Rp18
(I1
(I3
tp19
g11
I00
S'2\xf59B8W\x0bC\xa0\x91#C'
p20
tp21
bag1
(g2
(I0
tp22
g4
tp23
Rp24
(I1
(I3
tp25
g11
I00
S',\xbe\x91BF\xf7\xa2B\x91\x1f\xfbB'
p26
tp27
bag1
(g2
(I0
tp28
g4
tp29
Rp30
(I1
(I3
tp31
g11
I00
S'\xfb\xd94B\x98\xf4|C\xcd\x83\x9cB'
p32
tp33
bag1
(g2
(I0
tp34
g4
tp35
Rp36
(I1
(I3
tp37
g11
I00
S'\x0f\x05gB)\xf1\x91B\x12\xcd\x18C'
p38
tp39
bag1
(g2
(I0
tp40
g4
tp41
Rp42
(I1
(I3
tp43
g11
I00
S'\r\xe62B\x90\\BCe\x0c,C'
p44
tp45
bag1
(g2
(I0
tp46
g4
tp47
Rp48
(I1
(I3
tp49
g11
I00
S'\x86a4B\x00@&Cb(\xf6B'
p50
tp51
bag1
(g2
(I0
tp52
g4
tp53
Rp54
(I1
(I3
tp55
g11
I00
S'\xea\xfc\x16B\x14\xc1\nC\x1e\xd1\x95B'
p56
tp57
bag1
(g2
(I0
tp58
g4
tp59
Rp60
(I1
(I3
tp61
g11
I00
S'z;;B\x14\xc1\xa6B\x17\x10MC'
p62
tp63
bag1
(g2
(I0
tp64
g4
tp65
Rp66
(I1
(I3
tp67
g11
I00
S'(\xb5+B\x0c\xfaPC\xb7m\xc3B'
p68
tp69
bag1
(g2
(I0
tp70
g4
tp71
Rp72
(I1
(I3
tp73
g11
I00
S'\x88\x87\x0cC}}\xbdA\x92\x91\xafB'
p74
tp75
bag1
(g2
(I0
tp76
g4
tp77
Rp78
(I1
(I3
tp79
g11
I00
S'\xef\xb4.BWwhCI\x92\xa2B'
p80
tp81
bag1
(g2
(I0
tp82
g4
tp83
Rp84
(I1
(I3
tp85
g11
I00
S'\xf3\x93,B\xa8\xb6&C\x88\xa3GC'
p86
tp87
bag1
(g2
(I0
tp88
g4
tp89
Rp90
(I1
(I3
tp91
g11
I00
S'^+#B\xf3>EB\xe7}JB'
p92
tp93
bag1
(g2
(I0
tp94
g4
tp95
Rp96
(I1
(I3
tp97
g11
I00
S'KK+C\xc4\xc3\xcfB\n\n\x88B'
p98
tp99
bag1
(g2
(I0
tp100
g4
tp101
Rp102
(I1
(I3
tp103
g11
I00
S'\xb1\xbe&B1>{C\xcb\n/C'
p104
tp105
bag1
(g2
(I0
tp106
g4
tp107
Rp108
(I1
(I3
tp109
g11
I00
S'\xad2!B\xf8\x81`C\xea\x9aEC'
p110
tp111
bag1
(g2
(I0
tp112
g4
tp113
Rp114
(I1
(I3
tp115
g11
I00
S'\x97\x862BQ\xbbyC\xf0\x06\xdfB'
p116
tp117
bag1
(g2
(I0
tp118
g4
tp119
Rp120
(I1
(I3
tp121
g11
I00
S'\x98%\x1fBT\x9f7CH\xa8~B'
p122
tp123
bag1
(g2
(I0
tp124
g4
tp125
Rp126
(I1
(I3
tp127
g11
I00
S"ww'B(}hC7\xc5PB"
p128
tp129
bag1
(g2
(I0
tp130
g4
tp131
Rp132
(I1
(I3
tp133
g11
I00
S'8\x9c\xa0BS\xa9(B\xf2\xb8EC'
p134
tp135
bag1
(g2
(I0
tp136
g4
tp137
Rp138
(I1
(I3
tp139
g11
I00
S'\xa2\xd7/BS\xaazCv\xe6\rC'
p140
tp141
bag1
(g2
(I0
tp142
g4
tp143
Rp144
(I1
(I3
tp145
g11
I00
S'\xfcK2B4g\xf4B\xc0_SC'
p146
tp147
bag1
(g2
(I0
tp148
g4
tp149
Rp150
(I1
(I3
tp151
g11
I00
S'\x9b\x084B\xdf\x15VC\xa13\x0bC'
p152
tp153
ba(lp154
g1
(g2
(I0
tp155
g4
tp156
Rp157
(I1
(I3
tp158
g11
I00
S'\xce\xafsA\xce\x85yA\\R\x8cA'
p159
tp160
bag1
(g2
(I0
tp161
g4
tp162
Rp163
(I1
(I3
tp164
g11
I00
S'"\x98_@EMmA\xa4\xfcdA'
p165
tp166
bag1
(g2
(I0
tp167
g4
tp168
Rp169
(I1
(I3
tp170
g11
I00
S',\x8c\xb6@\xfe\xbf\xab@z\xf1\x18A'
p171
tp172
bag1
(g2
(I0
tp173
g4
tp174
Rp175
(I1
(I3
tp176
g11
I00
S'\x02\xd3\x16@\xc4\x8dH@*\xeb\x13A'
p177
tp178
bag1
(g2
(I0
tp179
g4
tp180
Rp181
(I1
(I3
tp182
g11
I00
S'\xfcM4A\x14<9A\xd3\x07\x1eA'
p183
tp184
bag1
(g2
(I0
tp185
g4
tp186
Rp187
(I1
(I3
tp188
g11
I00
S'\x98\x93\x0b@\xfb\xd4?A\x92UAA'
p189
tp190
bag1
(g2
(I0
tp191
g4
tp192
Rp193
(I1
(I3
tp194
g11
I00
S'\x9f\x85\x82@\xf2%iA\xb6\x15aA'
p195
tp196
bag1
(g2
(I0
tp197
g4
tp198
Rp199
(I1
(I3
tp200
g11
I00
S'd\x0b)A\xcb&[A\xa7Z\xa7A'
p201
tp202
bag1
(g2
(I0
tp203
g4
tp204
Rp205
(I1
(I3
tp206
g11
I00
S'\x193\x82@\x19\x0fZA@\xfeZA'
p207
tp208
bag1
(g2
(I0
tp209
g4
tp210
Rp211
(I1
(I3
tp212
g11
I00
S'DV\x9c@\xc5\x82;A\x82\x827A'
p213
tp214
bag1
(g2
(I0
tp215
g4
tp216
Rp217
(I1
(I3
tp218
g11
I00
S'\xe9"\xe5A\xb8\x88\x88Axm\xdeA'
p219
tp220
bag1
(g2
(I0
tp221
g4
tp222
Rp223
(I1
(I3
tp224
g11
I00
S'\xad\x17h@\x17\x11\x02A\xefR\x00A'
p225
tp226
bag1
(g2
(I0
tp227
g4
tp228
Rp229
(I1
(I3
tp230
g11
I00
S'\xde\xf5\x15@*CTA\xd1,4A'
p231
tp232
bag1
(g2
(I0
tp233
g4
tp234
Rp235
(I1
(I3
tp236
g11
I00
S'pU\xa7A\xdc\x0f\x8bAr{\x9fA'
p237
tp238
bag1
(g2
(I0
tp239
g4
tp240
Rp241
(I1
(I3
tp242
g11
I00
S'k\xe0\xaf@\x01\xa1\xebA\x8d\xa1\xaaA'
p243
tp244
bag1
(g2
(I0
tp245
g4
tp246
Rp247
(I1
(I3
tp248
g11
I00
S'\xe9\xf3\xbd?\xda\xff\xc1@;\n\x1dA'
p249
tp250
bag1
(g2
(I0
tp251
g4
tp252
Rp253
(I1
(I3
tp254
g11
I00
S'\x9a\x1d\xfc?\xe0!\x7fA*\xc8<A'
p255
tp256
bag1
(g2
(I0
tp257
g4
tp258
Rp259
(I1
(I3
tp260
g11
I00
S'\xa1T.@\xf1\xf7\xe6@c\xa7\x08A'
p261
tp262
bag1
(g2
(I0
tp263
g4
tp264
Rp265
(I1
(I3
tp266
g11
I00
S'\x85\xca\xd3@\xd5\xf1\\A\xab\xa0qA'
p267
tp268
bag1
(g2
(I0
tp269
g4
tp270
Rp271
(I1
(I3
tp272
g11
I00
S'\x9cd\xa0@\xb9xjA\xde\xc4\x19A'
p273
tp274
bag1
(g2
(I0
tp275
g4
tp276
Rp277
(I1
(I3
tp278
g11
I00
S'`\xbd\xae@\x1dD\xe6@\xfb\x9coA'
p279
tp280
bag1
(g2
(I0
tp281
g4
tp282
Rp283
(I1
(I3
tp284
g11
I00
S'\x07K\xfc?:%\xc7@v\x13\rA'
p285
tp286
bag1
(g2
(I0
tp287
g4
tp288
Rp289
(I1
(I3
tp290
g11
I00
S't\x0f.@-\xd9HA>\xc1UA'
p291
tp292
bag1
(g2
(I0
tp293
g4
tp294
Rp295
(I1
(I3
tp296
g11
I00
S'P\x95\x1c@\xf9L.A\xbe\x1b6A'
p297
tp298
bac__builtin__
set
p299
((lp300
cnumpy.core.multiarray
scalar
p301
(g8
(S'i4'
p302
I0
I1
tp303
Rp304
(I3
S'<'
p305
NNNI-1
I-1
I0
tp306
bS'\x01\x00\x00\x00'
p307
tp308
Rp309
ag301
(g304
S'\x03\x00\x00\x00'
p310
tp311
Rp312
ag301
(g304
S'\x05\x00\x00\x00'
p313
tp314
Rp315
ag301
(g304
S'\x06\x00\x00\x00'
p316
tp317
Rp318
ag301
(g304
S'\x07\x00\x00\x00'
p319
tp320
Rp321
ag301
(g304
S'\t\x00\x00\x00'
p322
tp323
Rp324
ag301
(g304
S'\x0b\x00\x00\x00'
p325
tp326
Rp327
ag301
(g304
S'\x0c\x00\x00\x00'
p328
tp329
Rp330
ag301
(g304
S'\x0f\x00\x00\x00'
p331
tp332
Rp333
ag301
(g304
S'\x10\x00\x00\x00'
p334
tp335
Rp336
ag301
(g304
S'\x11\x00\x00\x00'
p337
tp338
Rp339
ag301
(g304
S'\x12\x00\x00\x00'
p340
tp341
Rp342
ag301
(g304
S'\x13\x00\x00\x00'
p343
tp344
Rp345
ag301
(g304
S'\x15\x00\x00\x00'
p346
tp347
Rp348
ag301
(g304
S'\x16\x00\x00\x00'
p349
tp350
Rp351
ag301
(g304
S'\x17\x00\x00\x00'
p352
tp353
Rp354
atp355
Rp356
g299
((lp357
I0
aI2
ag301
(g304
S'\x04\x00\x00\x00'
p358
tp359
Rp360
aI8
aI10
aI13
aI14
aI20
atp361
Rp362
tp363
.