(cnumpy.core.multiarray
_reconstruct
p0
(cnumpy
ndarray
p1
(I0
tp2
S'b'
p3
tp4
Rp5
(I1
(I3
tp6
cnumpy
dtype
p7
(S'f8'
p8
I0
I1
tp9
Rp10
(I3
S'<'
p11
NNNI-1
I-1
I0
tp12
bI00
S'fffff\x86c@333333A@\xef\xee\xee\xee\xee.O@'
p13
tp14
bg0
(g1
(I0
tp15
g3
tp16
Rp17
(I1
(I3
tp18
g10
I00
S"3\x99\x8b\xaa\x1e\x17C@\xa8&\x81\xfb\xe77'@!\x12\xabl\x15\xfd5@"
p19
tp20
btp21
.