(cnumpy.core.multiarray
_reconstruct
p0
(cnumpy
ndarray
p1
(I0
tp2
S'b'
p3
tp4
Rp5
(I1
(I3
tp6
cnumpy
dtype
p7
(S'f8'
p8
I0
I1
tp9
Rp10
(I3
S'<'
p11
NNNI-1
I-1
I0
tp12
bI00
S"vb'vb\xa7'@\x14;\xb1\x13;qO@\x00\x00\x00\x00\x00Xl@"
p13
tp14
bg0
(g1
(I0
tp15
g3
tp16
Rp17
(I1
(I3
tp18
g10
I00
S'\x06r\x16\xf3Yc\xfa?a\x12Kb\x8b\x0f @\xf4\xb8d\x9a\xfb\xb9,@'
p19
tp20
btp21
.