(cnumpy.core.multiarray
_reconstruct
p0
(cnumpy
ndarray
p1
(I0
tp2
S'b'
p3
tp4
Rp5
(I1
(I3
tp6
cnumpy
dtype
p7
(S'f8'
p8
I0
I1
tp9
Rp10
(I3
S'<'
p11
NNNI-1
I-1
I0
tp12
bI00
S't\xd1E\x17]tB@F\x17]t\xd1\xc5S@\xba\xe8\xa2\x8b.\x1ai@'
p13
tp14
bg0
(g1
(I0
tp15
g3
tp16
Rp17
(I1
(I3
tp18
g10
I00
S'z\xa7\x9d\xe8<\x85\x00@\xfb\x9a\xcdK\x82\xaf5@!1\x94\xae\xae.7@'
p19
tp20
btp21
.