((lp0
I0
aI60
aI120
aI900
aI960
aI1020
aI1080
aI1140
aI1205
aI1260
aI1320
aI1380
aI1440
aI1500
aI1560
aI2340
aI2400
aI2460
aI2520
aI2580
aI2640
aI2700
aI2760
aI2820
aI2880
aI2940
aI3000
aI3780
aI3840
aI3900
aI3960
aI4020
aI4080
aI4140
aI4200
aI4260
aI4320
aI4380
aI4440
aI5220
aI5280
aI5340
aI5400
aI5460
aI5520
aI5580
aI5640
aI5700
aI5760
aI5820
aI5880
aI6660
aI6720
aI6780
aI6840
aI6900
aI6960
aI7020
aI7080
aI7140
aI7200
aI7260
aI7320
aI8100
aI8160
aI8220
aI8280
aI8340
aI8400
aI8460
aI8520
aI8580
aI8640
aI8700
aI8760
aI9540
aI9600
aI9660
aI9720
aI9780
aI9840
aI9900
aI9960
aI10020
aI10080
aI10140
aI10200
aI10980
aI11040
aI11100
aI11160
aI11220
aI11280
aI11340
aI11400
aI11460
aI11520
aI11580
aI11640
aI12420
a(lp1
F31.55752115885417
aF36.743335774739585
aF35.31157796223958
aF45.36781575520833
aF44.95196695963541
aF45.7570947265625
aF50.32644124348958
aF54.65440999348959
aF61.24739176432292
aF62.17644449869792
aF68.40584228515625
aF67.6855126953125
aF68.48751383463542
aF70.67778645833333
aF71.54212809244791
aF115.90571044921874
aF101.96202229817709
aF102.79983642578125
aF115.38141927083333
aF123.09352945963542
aF118.1953271484375
aF119.29604085286458
aF125.33190999348959
aF130.04559651692708
aF125.01762288411459
aF136.84444091796874
aF142.131357421875
aF169.2998095703125
aF167.87862955729167
aF168.39210611979166
aF177.14208740234375
aF179.3563077799479
aF170.1844384765625
aF170.70613444010417
aF170.36140869140624
aF169.89772867838542
aF172.94503255208335
aF165.70468587239583
aF167.38484375
aF206.19067464192707
aF211.23297037760418
aF208.84270426432292
aF203.40644124348958
aF203.53330810546876
aF209.289091796875
aF204.19376057942708
aF202.0912019856771
aF203.4896435546875
aF205.28363525390625
aF192.38769205729167
aF195.890478515625
aF207.5347509765625
aF214.42036865234374
aF212.90993408203124
aF213.12018880208333
aF206.52239990234375
aF209.32948974609374
aF211.1710294596354
aF210.42368001302083
aF211.40823486328125
aF216.03902180989584
aF216.0001066080729
aF215.09104654947916
aF223.72685221354166
aF216.79421142578124
aF212.18104736328124
aF222.0728035481771
aF219.24139404296875
aF215.73871744791666
aF220.39348551432292
aF216.9725048828125
aF219.80950602213542
aF221.23590494791668
aF214.04888916015625
aF222.38445719401042
aF225.24811279296875
aF221.05498453776042
aF224.6530558268229
aF227.4822314453125
aF221.6639892578125
aF221.92504313151042
aF219.6169775390625
aF220.98788492838543
aF216.45547526041668
aF214.84283365885418
aF219.68195556640626
aF219.1744482421875
aF218.9047176106771
aF211.69032958984374
aF213.50662923177083
aF211.14630859375
aF135.81633138020834
aF28.9226025390625
aF25.836880696614582
aF91.908017578125
aF89.14031819661459
aF91.29919026692708
aF93.63419352213542
aF92.58152994791666
aF87.71555908203125
atp2
.