((lp0
I0
aI60
aI120
aI900
aI960
aI1020
aI1080
aI1140
aI1205
aI1260
aI1320
aI1380
aI1440
aI1500
aI1560
aI2340
aI2400
aI2460
aI2520
aI2580
aI2640
aI2700
aI2760
aI2820
aI2880
aI2940
aI3000
aI3780
aI3840
aI3900
aI3960
aI4020
aI4080
aI4140
aI4200
aI4260
aI4320
aI4380
aI4440
aI5220
aI5280
aI5340
aI5400
aI5460
aI5520
aI5580
aI5640
aI5700
aI5760
aI5820
aI5880
aI6660
aI6720
aI6780
aI6840
aI6900
aI6960
aI7020
aI7080
aI7140
aI7200
aI7260
aI7320
aI8100
aI8160
aI8220
aI8280
aI8340
aI8400
aI8460
aI8520
aI8580
aI8640
aI8700
aI8760
aI9540
aI9600
aI9660
aI9720
aI9780
aI9840
aI9900
aI9960
aI10020
aI10080
aI10140
aI10200
aI10980
aI11040
aI11100
aI11160
aI11220
aI11280
aI11340
aI11400
aI11460
aI11520
aI11580
aI11640
aI12420
a(lp1
F201.3465787760417
aF197.73746283637152
aF198.31844401041667
aF189.96178955078122
aF189.06884033203127
aF188.0111564127604
aF185.3006591796875
aF183.21286756727432
aF182.1094175889757
aF179.9562508138021
aF176.31671305338546
aF175.52217339409722
aF174.1040478515625
aF172.1756713867188
aF171.69569661458334
aF153.97474989149305
aF158.66103678385417
aF153.85110785590277
aF154.38708685980905
aF149.23101372612848
aF147.87940022786458
aF146.35885091145835
aF143.42161621093751
aF142.13213568793404
aF141.16120578342014
aF139.04257242838543
aF135.54754991319444
aF126.98622477213542
aF125.75328531901043
aF124.74844021267363
aF122.13248480902779
aF120.24642713758682
aF121.78663601345488
aF120.65839708116319
aF120.20578667534723
aF119.41875434027777
aF119.11590332031251
aF119.14903374565972
aF117.8676486545139
aF112.45656928168404
aF110.85922851562502
aF111.73895453559028
aF114.56769829644098
aF113.07886149088542
aF112.6305615234375
aF113.43884548611112
aF113.26673936631944
aF112.31566813151044
aF111.31634711371528
aF114.08851453993056
aF113.25979058159724
aF112.23726399739583
aF111.60216552734376
aF113.0926624891493
aF114.49739908854167
aF115.68205078125
aF115.03356553819447
aF114.46548773871528
aF113.36384657118056
aF112.68042371961808
aF110.50282253689238
aF110.14056477864585
aF110.22417480468751
aF110.74396185980903
aF113.89440402560763
aF113.60007432725695
aF111.6094189453125
aF112.04072645399306
aF112.19500786675347
aF113.03603325737849
aF113.76396891276043
aF113.20743489583333
aF111.7811119249132
aF112.61662163628472
aF110.82545518663194
aF112.58057237413193
aF113.97080593532986
aF112.67484185112848
aF111.72314561631946
aF113.52575927734377
aF113.23282552083333
aF113.31118109809029
aF113.18280083550349
aF113.90380615234376
aF114.25532063802085
aF111.50701660156251
aF111.45267198350696
aF113.05351345486112
aF115.0611105685764
aF115.13981391059029
aF114.87026909722222
aF95.91020426432293
aF84.97565945095486
aF88.93339925130208
aF87.41321370442711
aF89.03665011935766
aF86.8796763780382
aF86.85787950303819
aF87.38980034722222
aF90.36212239583334
atp2
.