((lp0
I0
aI60
aI120
aI900
aI960
aI1020
aI1080
aI1140
aI1205
aI1260
aI1320
aI1380
aI1440
aI1500
aI1560
aI2340
aI2400
aI2460
aI2520
aI2580
aI2640
aI2700
aI2760
aI2820
aI2880
aI2940
aI3000
aI3780
aI3840
aI3900
aI3960
aI4020
aI4080
aI4140
aI4200
aI4260
aI4320
aI4380
aI4440
aI5220
aI5280
aI5340
aI5400
aI5460
aI5520
aI5580
aI5640
aI5700
aI5760
aI5820
aI5880
aI6660
aI6720
aI6780
aI6840
aI6900
aI6960
aI7020
aI7080
aI7140
aI7200
aI7260
aI7320
aI8100
aI8160
aI8220
aI8280
aI8340
aI8400
aI8460
aI8520
aI8580
aI8640
aI8700
aI8760
aI9540
aI9600
aI9660
aI9720
aI9780
aI9840
aI9900
aI9960
aI10020
aI10080
aI10140
aI10200
aI10980
aI11040
aI11100
aI11160
aI11220
aI11280
aI11340
aI11400
aI11460
aI11520
aI11580
aI11640
aI12420
a(lp1
I0
aI0
aI0
aI6
aI0
aI0
aI0
aI0
aI0
aI0
aI0
aI0
aI0
aI0
aI0
aI28
aI0
aI0
aI0
aI0
aI0
aI0
aI0
aI0
aI0
aI0
aI0
aI3
aI0
aI0
aI0
aI0
aI0
aI0
aI0
aI0
aI0
aI0
aI0
aI0
aI0
aI0
aI0
aI0
aI0
aI0
aI0
aI0
aI0
aI0
aI0
aI0
aI0
aI0
aI0
aI0
aI0
aI0
aI0
aI0
aI0
aI0
aI0
aI0
aI0
aI0
aI0
aI0
aI0
aI0
aI0
aI0
aI0
aI0
aI0
aI0
aI0
aI0
aI0
aI0
aI0
aI0
aI0
aI0
aI0
aI0
aI0
aI0
aI0
aI0
aI0
aI255
aI255
aI3
aI200
aI1
aI15
aI0
aI0
aI3
atp2
.