((lp0
I0
aI60
aI120
aI900
aI960
aI1020
aI1080
aI1140
aI1205
aI1260
aI1320
aI1380
aI1440
aI1500
aI1560
aI2340
aI2400
aI2460
aI2520
aI2580
aI2640
aI2700
aI2760
aI2820
aI2880
aI2940
aI3000
aI3780
aI3840
aI3900
aI3960
aI4020
aI4080
aI4140
aI4200
aI4260
aI4320
aI4380
aI4440
aI5220
aI5280
aI5340
aI5400
aI5460
aI5520
aI5580
aI5640
aI5700
aI5760
aI5820
aI5880
aI6660
aI6720
aI6780
aI6840
aI6900
aI6960
aI7020
aI7080
aI7140
aI7200
aI7260
aI7320
aI8100
aI8160
aI8220
aI8280
aI8340
aI8400
aI8460
aI8520
aI8580
aI8640
aI8700
aI8760
aI9540
aI9600
aI9660
aI9720
aI9780
aI9840
aI9900
aI9960
aI10020
aI10080
aI10140
aI10200
aI10980
aI11040
aI11100
aI11160
aI11220
aI11280
aI11340
aI11400
aI11460
aI11520
aI11580
aI11640
aI12420
a(lp1
F206.5437744140625
aF202.0298095703125
aF201.2462158203125
aF175.95601806640624
aF173.19642333984376
aF169.33240966796876
aF161.88328857421874
aF155.6475341796875
aF150.508935546875
aF143.159423828125
aF133.06795654296874
aF127.626171875
aF123.15848388671876
aF115.7581298828125
aF113.2795166015625
aF58.415087890625
aF66.970703125
aF61.59615478515625
aF58.1075439453125
aF49.55089111328125
aF47.11378173828125
aF44.1738525390625
aF36.23726806640625
aF34.21519775390625
aF33.00701904296875
aF30.10340576171875
aF26.46973876953125
aF9.83082275390625
aF8.3435302734375
aF7.65933837890625
aF5.19608154296875
aF5.21226806640625
aF5.75576171875
aF5.4523681640625
aF4.96552734375
aF4.1350341796875
aF4.6654541015625
aF4.70322265625
aF4.95120849609375
aF1.37958984375
aF0.78753662109375
aF0.62525634765625
aF0.6619873046875
aF0.7217529296875
aF0.61363525390625
aF0.64310302734375
aF0.6213134765625
aF0.65576171875
aF0.60865478515625
aF1.2048583984375
aF0.8666015625
aF0.32705078125
aF0.36336669921875
aF0.29903564453125
aF0.3042236328125
aF0.405908203125
aF0.30567626953125
aF0.32269287109375
aF0.27724609375
aF0.27164306640625
aF0.2689453125
aF0.26956787109375
aF0.26624755859375
aF0.27371826171875
aF0.2643798828125
aF0.26064453125
aF0.27392578125
aF0.28077392578125
aF0.26043701171875
aF0.27620849609375
aF0.2751708984375
aF0.2685302734375
aF0.26915283203125
aF0.3258056640625
aF0.27039794921875
aF0.2560791015625
aF0.28243408203125
aF0.2701904296875
aF0.258154296875
aF0.2859619140625
aF0.28243408203125
aF0.28409423828125
aF0.28201904296875
aF0.35963134765625
aF0.3473876953125
aF0.297998046875
aF0.27060546875
aF0.25172119140625
aF0.29862060546875
aF0.41773681640625
aF0.2934326171875
aF12.63399658203125
aF24.288916015625
aF24.19013671875
aF11.019287109375
aF10.698876953125
aF10.80927734375
aF10.58909912109375
aF10.70447998046875
aF10.65716552734375
atp2
.