((lp0
cnumpy.core.multiarray
_reconstruct
p1
(cnumpy
ndarray
p2
(I0
tp3
S'b'
p4
tp5
Rp6
(I1
(I3
tp7
cnumpy
dtype
p8
(S'f4'
p9
I0
I1
tp10
Rp11
(I3
S'<'
p12
NNNI-1
I-1
I0
tp13
bI00
S'5p\xfdA\x08-\x18C\x9b\xa6&B'
p14
tp15
bag1
(g2
(I0
tp16
g4
tp17
Rp18
(I1
(I3
tp19
g11
I00
S'\x17\xfc\xe9A\xc5\xbe\x00C\x0b8\xc7B'
p20
tp21
bag1
(g2
(I0
tp22
g4
tp23
Rp24
(I1
(I3
tp25
g11
I00
S'\xd7\xd8\xd3B\xef\xf4\x1aC\xafN9C'
p26
tp27
bag1
(g2
(I0
tp28
g4
tp29
Rp30
(I1
(I3
tp31
g11
I00
S'\xd0(\x04B\x0c\xee}A%E0C'
p32
tp33
bag1
(g2
(I0
tp34
g4
tp35
Rp36
(I1
(I3
tp37
g11
I00
S'z\x15\xc3B\x1c#7A\x18\xe62C'
p38
tp39
bag1
(g2
(I0
tp40
g4
tp41
Rp42
(I1
(I3
tp43
g11
I00
S'\xa6\xe8\nB\x0c\x89\x9bB<\xcb\x1fC'
p44
tp45
bag1
(g2
(I0
tp46
g4
tp47
Rp48
(I1
(I3
tp49
g11
I00
S'\x13y\x14B\xa6h\xa6BR\t\x82B'
p50
tp51
bag1
(g2
(I0
tp52
g4
tp53
Rp54
(I1
(I3
tp55
g11
I00
S',C\xe2AwfnCo\xd3^C'
p56
tp57
bag1
(g2
(I0
tp58
g4
tp59
Rp60
(I1
(I3
tp61
g11
I00
S'\xff\x98\xfeA\x05\x96\x05C\x8d\x84\x84B'
p62
tp63
bag1
(g2
(I0
tp64
g4
tp65
Rp66
(I1
(I3
tp67
g11
I00
S'\x8ba\xe5A\xa1L3BI\x9bAC'
p68
tp69
bag1
(g2
(I0
tp70
g4
tp71
Rp72
(I1
(I3
tp73
g11
I00
S'2\xc8\x05Bb\xd6\xe5B\xd4f@B'
p74
tp75
bag1
(g2
(I0
tp76
g4
tp77
Rp78
(I1
(I3
tp79
g11
I00
S'\xe90\xe1B^\x85QB\x82>\xf2B'
p80
tp81
bag1
(g2
(I0
tp82
g4
tp83
Rp84
(I1
(I3
tp85
g11
I00
S's>\x18By\x05FB\xb4b\x05C'
p86
tp87
bag1
(g2
(I0
tp88
g4
tp89
Rp90
(I1
(I3
tp91
g11
I00
S'\x9b\x92.C\xab\xa7\x1bC\x08\xa6OC'
p92
tp93
bag1
(g2
(I0
tp94
g4
tp95
Rp96
(I1
(I3
tp97
g11
I00
S'g\xe3\x91B\xb3.\x1fA\x84t\tC'
p98
tp99
bag1
(g2
(I0
tp100
g4
tp101
Rp102
(I1
(I3
tp103
g11
I00
S'\x1a\xe5,BA\xf5bB$\x01\xbaB'
p104
tp105
bag1
(g2
(I0
tp106
g4
tp107
Rp108
(I1
(I3
tp109
g11
I00
S'I\xb9\x1eC;\xa5\x93Ap\x10\xacB'
p110
tp111
bag1
(g2
(I0
tp112
g4
tp113
Rp114
(I1
(I3
tp115
g11
I00
S'\xe9\xb8-B\x98>$C^\xfd C'
p116
tp117
bag1
(g2
(I0
tp118
g4
tp119
Rp120
(I1
(I3
tp121
g11
I00
S'6\x0c\xefA\xc9\xe2FAa\x94\\C'
p122
tp123
bag1
(g2
(I0
tp124
g4
tp125
Rp126
(I1
(I3
tp127
g11
I00
S'\x11V\x0cBz\xf6\xd2B\xcf\x1c\x9bB'
p128
tp129
bag1
(g2
(I0
tp130
g4
tp131
Rp132
(I1
(I3
tp133
g11
I00
S'>\xca\x8aAZ\xbd\x89A\x17\xb4\xb6B'
p134
tp135
bag1
(g2
(I0
tp136
g4
tp137
Rp138
(I1
(I3
tp139
g11
I00
S'\x15\x98\x11Ba^\xbaB\xfe\xac\xcaB'
p140
tp141
bag1
(g2
(I0
tp142
g4
tp143
Rp144
(I1
(I3
tp145
g11
I00
S"\x9e^\xebAI\xeb'C\x93\x06\x8fB"
p146
tp147
bag1
(g2
(I0
tp148
g4
tp149
Rp150
(I1
(I3
tp151
g11
I00
S'\x7f2\x06B\x96\xf9\xd6BB\xf9\x01C'
p152
tp153
bag1
(g2
(I0
tp154
g4
tp155
Rp156
(I1
(I3
tp157
g11
I00
S'h\xc7\xf1B\xc5\xf9\x98A\x04.\xb4B'
p158
tp159
bag1
(g2
(I0
tp160
g4
tp161
Rp162
(I1
(I3
tp163
g11
I00
S'[\x18\x0fCL\xcd\xc7B\x9cB\rC'
p164
tp165
bag1
(g2
(I0
tp166
g4
tp167
Rp168
(I1
(I3
tp169
g11
I00
S'\x8c\x05\x1eC\x8f\x9c\xbeB3\xadQC'
p170
tp171
bag1
(g2
(I0
tp172
g4
tp173
Rp174
(I1
(I3
tp175
g11
I00
S'\xd6=\xe0A;\xe7\xa1A\x86K\tB'
p176
tp177
bag1
(g2
(I0
tp178
g4
tp179
Rp180
(I1
(I3
tp181
g11
I00
S'\xc5\xd5\xc4B\xf3\xde\nB\x95\xa8/B'
p182
tp183
bag1
(g2
(I0
tp184
g4
tp185
Rp186
(I1
(I3
tp187
g11
I00
S'p\x00\x1dBO(\x9cBzu\x02C'
p188
tp189
bag1
(g2
(I0
tp190
g4
tp191
Rp192
(I1
(I3
tp193
g11
I00
S";\xcb\xf8A\xf1\xecBC\xd2'\x14B"
p194
tp195
bag1
(g2
(I0
tp196
g4
tp197
Rp198
(I1
(I3
tp199
g11
I00
S'p\xff!Bs\xea\x90B\x12 \xd1B'
p200
tp201
ba(lp202
g1
(g2
(I0
tp203
g4
tp204
Rp205
(I1
(I3
tp206
g11
I00
S'\xaen\xaa@k\xe6,A\x92\xd8\x19A'
p207
tp208
bag1
(g2
(I0
tp209
g4
tp210
Rp211
(I1
(I3
tp212
g11
I00
S'\x1el\tA\xde<<A2d%A'
p213
tp214
bag1
(g2
(I0
tp215
g4
tp216
Rp217
(I1
(I3
tp218
g11
I00
S' ?\rALf\xf6@0"\xa7@'
p219
tp220
bag1
(g2
(I0
tp221
g4
tp222
Rp223
(I1
(I3
tp224
g11
I00
S'W`\xf1@q\xeb\x02A7\xad_A'
p225
tp226
bag1
(g2
(I0
tp227
g4
tp228
Rp229
(I1
(I3
tp230
g11
I00
S'1\x88\x96A\xf61\x1fA\x01+gA'
p231
tp232
bag1
(g2
(I0
tp233
g4
tp234
Rp235
(I1
(I3
tp236
g11
I00
S'\xdb\xce\xdd@\xf1sFAD\xe4(A'
p237
tp238
bag1
(g2
(I0
tp239
g4
tp240
Rp241
(I1
(I3
tp242
g11
I00
S'\x87\x1e\xde@M\x03\x18A\xa0\x1a<A'
p243
tp244
bag1
(g2
(I0
tp245
g4
tp246
Rp247
(I1
(I3
tp248
g11
I00
S'l\x16!@Z\xb3\x9aA&\x13)A'
p249
tp250
bag1
(g2
(I0
tp251
g4
tp252
Rp253
(I1
(I3
tp254
g11
I00
S'W\xdf\xdc@\xee\x8d\x04A|\xbf\x08A'
p255
tp256
bag1
(g2
(I0
tp257
g4
tp258
Rp259
(I1
(I3
tp260
g11
I00
S'n\x9c<@\xc0\xbf6A\xb0\xdbAA'
p261
tp262
bag1
(g2
(I0
tp263
g4
tp264
Rp265
(I1
(I3
tp266
g11
I00
S'O\xc3\xb6@4`\x1eA/\xca\x1bA'
p267
tp268
bag1
(g2
(I0
tp269
g4
tp270
Rp271
(I1
(I3
tp272
g11
I00
S'\xb1\xc1\x12A\xcbj}AFS\x9aA'
p273
tp274
bag1
(g2
(I0
tp275
g4
tp276
Rp277
(I1
(I3
tp278
g11
I00
S'qe\x10A0\x0b,A\xafl3A'
p279
tp280
bag1
(g2
(I0
tp281
g4
tp282
Rp283
(I1
(I3
tp284
g11
I00
S'0},?\xe4v\xae@\xc5\x00\xbe@'
p285
tp286
bag1
(g2
(I0
tp287
g4
tp288
Rp289
(I1
(I3
tp290
g11
I00
S'\xa2\xa5YA)!\xad@*\xa2`A'
p291
tp292
bag1
(g2
(I0
tp293
g4
tp294
Rp295
(I1
(I3
tp296
g11
I00
S'\xb7\xef\x14A\x14\r\x11A\x9b72A'
p297
tp298
bag1
(g2
(I0
tp299
g4
tp300
Rp301
(I1
(I3
tp302
g11
I00
S'\x10\x8a8A\x86!&A\xa6CHA'
p303
tp304
bag1
(g2
(I0
tp305
g4
tp306
Rp307
(I1
(I3
tp308
g11
I00
S'\xbf\x9c\x12A\xa6\xdcnA\xfb\x9a\x8aA'
p309
tp310
bag1
(g2
(I0
tp311
g4
tp312
Rp313
(I1
(I3
tp314
g11
I00
S'\x16\x98\x16A\xb7\xb6\x1aA\x15\x956A'
p315
tp316
bag1
(g2
(I0
tp317
g4
tp318
Rp319
(I1
(I3
tp320
g11
I00
S'\xe4\xe6\xde@\xe4\n\xfa@\xe8S\x00A'
p321
tp322
bag1
(g2
(I0
tp323
g4
tp324
Rp325
(I1
(I3
tp326
g11
I00
S'\x9e3wA\xb2\x92FA\x11vjA'
p327
tp328
bag1
(g2
(I0
tp329
g4
tp330
Rp331
(I1
(I3
tp332
g11
I00
S'z1\xe5@\xb8\xf0\xf3@*\n\x08A'
p333
tp334
bag1
(g2
(I0
tp335
g4
tp336
Rp337
(I1
(I3
tp338
g11
I00
S'!\xfd\xf0@0\x93?A[IPA'
p339
tp340
bag1
(g2
(I0
tp341
g4
tp342
Rp343
(I1
(I3
tp344
g11
I00
S'q\xe5\x05A\x1a;(A\xe19.A'
p345
tp346
bag1
(g2
(I0
tp347
g4
tp348
Rp349
(I1
(I3
tp350
g11
I00
S'-\x89JA\xe0*\xfa@\x80\xa03A'
p351
tp352
bag1
(g2
(I0
tp353
g4
tp354
Rp355
(I1
(I3
tp356
g11
I00
S'j\x97\xaeAJ\xa6fA\x1d,\x84A'
p357
tp358
bag1
(g2
(I0
tp359
g4
tp360
Rp361
(I1
(I3
tp362
g11
I00
S'c\xa52@\xc3]\x85@\x95\x9c\xb9@'
p363
tp364
bag1
(g2
(I0
tp365
g4
tp366
Rp367
(I1
(I3
tp368
g11
I00
S'2@\xa3A\xe5\xce\x90A,\xff,A'
p369
tp370
bag1
(g2
(I0
tp371
g4
tp372
Rp373
(I1
(I3
tp374
g11
I00
S'^\xb4mA\x85\x93|A@GLA'
p375
tp376
bag1
(g2
(I0
tp377
g4
tp378
Rp379
(I1
(I3
tp380
g11
I00
S'\x00\x12\xc2@\xb7@\xf8@\xcd\xc1\xfd@'
p381
tp382
bag1
(g2
(I0
tp383
g4
tp384
Rp385
(I1
(I3
tp386
g11
I00
S'\xcb\xb4\xa8@A8\x85A6\xea@A'
p387
tp388
bag1
(g2
(I0
tp389
g4
tp390
Rp391
(I1
(I3
tp392
g11
I00
S'\xbfg\xe7@\x9f\xd7\xcd@Y\x04\x12A'
p393
tp394
bac__builtin__
set
p395
((lp396
cnumpy.core.multiarray
scalar
p397
(g8
(S'i4'
p398
I0
I1
tp399
Rp400
(I3
S'<'
p401
NNNI-1
I-1
I0
tp402
bS'\x00\x00\x00\x00'
p403
tp404
Rp405
ag397
(g400
S'\x01\x00\x00\x00'
p406
tp407
Rp408
ag397
(g400
S'\x06\x00\x00\x00'
p409
tp410
Rp411
ag397
(g400
S'\x08\x00\x00\x00'
p412
tp413
Rp414
ag397
(g400
S'\n\x00\x00\x00'
p415
tp416
Rp417
ag397
(g400
S'\x13\x00\x00\x00'
p418
tp419
Rp420
ag397
(g400
S'\x16\x00\x00\x00'
p421
tp422
Rp423
ag397
(g400
S'\x1d\x00\x00\x00'
p424
tp425
Rp426
ag397
(g400
S'\x1e\x00\x00\x00'
p427
tp428
Rp429
ag397
(g400
S'\x1f\x00\x00\x00'
p430
tp431
Rp432
atp433
Rp434
g395
((lp435
I2
aI3
aI4
ag397
(g400
S'\x05\x00\x00\x00'
p436
tp437
Rp438
aI7
aI9
aI11
ag397
(g400
S'\x0c\x00\x00\x00'
p439
tp440
Rp441
aI13
aI14
aI15
aI16
aI17
aI18
aI20
aI21
aI23
aI24
aI25
aI26
aI27
aI28
atp442
Rp443
tp444
.