((lp0
cnumpy.core.multiarray
_reconstruct
p1
(cnumpy
ndarray
p2
(I0
tp3
S'b'
p4
tp5
Rp6
(I1
(I3
tp7
cnumpy
dtype
p8
(S'f4'
p9
I0
I1
tp10
Rp11
(I3
S'<'
p12
NNNI-1
I-1
I0
tp13
bI00
S'.@iBR\x9a\x8aB +kB'
p14
tp15
bag1
(g2
(I0
tp16
g4
tp17
Rp18
(I1
(I3
tp19
g11
I00
S'\xd4\x95\xc0B\x04\xfeVBC^\x85B'
p20
tp21
bag1
(g2
(I0
tp22
g4
tp23
Rp24
(I1
(I3
tp25
g11
I00
S'\x12\xcd\xbaBh\x1c\x8fB\xa3#\x10B'
p26
tp27
bag1
(g2
(I0
tp28
g4
tp29
Rp30
(I1
(I3
tp31
g11
I00
S'\xe8t~B\x99VDB\x8fOcB'
p32
tp33
bag1
(g2
(I0
tp34
g4
tp35
Rp36
(I1
(I3
tp37
g11
I00
S'\xd1A\xb0BB\xaf&BA\xce\xe9A'
p38
tp39
bag1
(g2
(I0
tp40
g4
tp41
Rp42
(I1
(I3
tp43
g11
I00
S'\xc2\x863B\xd6V\xeeBl\t\x06C'
p44
tp45
bag1
(g2
(I0
tp46
g4
tp47
Rp48
(I1
(I3
tp49
g11
I00
S'\x08\xc6\xaaBY\xcaIB~;8C'
p50
tp51
bag1
(g2
(I0
tp52
g4
tp53
Rp54
(I1
(I3
tp55
g11
I00
S'\xa3\x8b.@]t\x91?]t\xd5A'
p56
tp57
bag1
(g2
(I0
tp58
g4
tp59
Rp60
(I1
(I3
tp61
g11
I00
S'\\E\x96B3\x9e\x0eB$\xf3$B'
p62
tp63
bag1
(g2
(I0
tp64
g4
tp65
Rp66
(I1
(I3
tp67
g11
I00
S'p3\xa3B_p.B\xb3-DC'
p68
tp69
bag1
(g2
(I0
tp70
g4
tp71
Rp72
(I1
(I3
tp73
g11
I00
S'\xec\xa2\xa8B] bB\t@/C'
p74
tp75
bag1
(g2
(I0
tp76
g4
tp77
Rp78
(I1
(I3
tp79
g11
I00
S'n\xbf\xb5B\xc3\xad\xc3B3\xb0\x03B'
p80
tp81
bag1
(g2
(I0
tp82
g4
tp83
Rp84
(I1
(I3
tp85
g11
I00
S'^d\xa1B\x81\xf1\x86B\xa68\xcdB'
p86
tp87
bag1
(g2
(I0
tp88
g4
tp89
Rp90
(I1
(I3
tp91
g11
I00
S'\x1f\xda\xaaB4\x16uB\xf6\xb1&C'
p92
tp93
bag1
(g2
(I0
tp94
g4
tp95
Rp96
(I1
(I3
tp97
g11
I00
S'8\xa2xB\xbe\x11-BK\t\xb7B'
p98
tp99
bag1
(g2
(I0
tp100
g4
tp101
Rp102
(I1
(I3
tp103
g11
I00
S'_\x81\xabB\xf7\nNB\xb4h\xc3B'
p104
tp105
bag1
(g2
(I0
tp106
g4
tp107
Rp108
(I1
(I3
tp109
g11
I00
S'\xd8\xaa\xc1B\x86\x84\xb6B\xd5p\x9eB'
p110
tp111
bag1
(g2
(I0
tp112
g4
tp113
Rp114
(I1
(I3
tp115
g11
I00
S'\\6\xb6B\xdc\x14OB\xa2C\x11C'
p116
tp117
bag1
(g2
(I0
tp118
g4
tp119
Rp120
(I1
(I3
tp121
g11
I00
S'\xfd0\x9eB\xf3\xc3\xfcA30cC'
p122
tp123
bag1
(g2
(I0
tp124
g4
tp125
Rp126
(I1
(I3
tp127
g11
I00
S'\xec2\xaaB\x1771B/\n\xa8B'
p128
tp129
bag1
(g2
(I0
tp130
g4
tp131
Rp132
(I1
(I3
tp133
g11
I00
S'6\x94-BCy1CQ>\x12C'
p134
tp135
bag1
(g2
(I0
tp136
g4
tp137
Rp138
(I1
(I3
tp139
g11
I00
S'n\x8e\x9eB\xa1\xe0\x16BK{RC'
p140
tp141
bag1
(g2
(I0
tp142
g4
tp143
Rp144
(I1
(I3
tp145
g11
I00
S'\xac\xccUBP\xbf\x84B\x0f\x08\nB'
p146
tp147
bag1
(g2
(I0
tp148
g4
tp149
Rp150
(I1
(I3
tp151
g11
I00
S'q\x85\xa6B\xe1#aB\xecBPB'
p152
tp153
bag1
(g2
(I0
tp154
g4
tp155
Rp156
(I1
(I3
tp157
g11
I00
S'<\xe2JB\xc0J\x11B0\xbd\xfeA'
p158
tp159
bag1
(g2
(I0
tp160
g4
tp161
Rp162
(I1
(I3
tp163
g11
I00
S')\xf7\x9fBXp=B\x1d\xd7\x86B'
p164
tp165
bag1
(g2
(I0
tp166
g4
tp167
Rp168
(I1
(I3
tp169
g11
I00
S'\x0e\x07QB \xbb\xb7B\x1c5\xa3B'
p170
tp171
bag1
(g2
(I0
tp172
g4
tp173
Rp174
(I1
(I3
tp175
g11
I00
S'\xa6\x9d\xa8B\xe6\xb1!B\x9e\x03\nC'
p176
tp177
bag1
(g2
(I0
tp178
g4
tp179
Rp180
(I1
(I3
tp181
g11
I00
S'H\x83TB\xcb\xb7\x8bB\xe6\xdb,C'
p182
tp183
bag1
(g2
(I0
tp184
g4
tp185
Rp186
(I1
(I3
tp187
g11
I00
S'x\xb9\xa1B\xc6\x10\xaaB\x88\x11\xefA'
p188
tp189
bag1
(g2
(I0
tp190
g4
tp191
Rp192
(I1
(I3
tp193
g11
I00
S'\xb6\xd1\xa5B&A\x97BD\xbb\xbeB'
p194
tp195
bag1
(g2
(I0
tp196
g4
tp197
Rp198
(I1
(I3
tp199
g11
I00
S'\xab\xaa2B\xab\xea\xdbB\xab\xbaAC'
p200
tp201
bag1
(g2
(I0
tp202
g4
tp203
Rp204
(I1
(I3
tp205
g11
I00
S'\xfa\x17\xbdB\x19\xd7\x9fB\xb7\xb7\xdcB'
p206
tp207
bag1
(g2
(I0
tp208
g4
tp209
Rp210
(I1
(I3
tp211
g11
I00
S'\x0f\x85\xbcB.\x9d\x80Bo\xe9\xc2B'
p212
tp213
bag1
(g2
(I0
tp214
g4
tp215
Rp216
(I1
(I3
tp217
g11
I00
S'R\xc98B\x02i\x15C\x86&\xdfB'
p218
tp219
bag1
(g2
(I0
tp220
g4
tp221
Rp222
(I1
(I3
tp223
g11
I00
S'k\xad]BN\xee\x96B\x8a\x03\x08C'
p224
tp225
bag1
(g2
(I0
tp226
g4
tp227
Rp228
(I1
(I3
tp229
g11
I00
S'\x05MBB\r\xeb\xf8B\xae\xde\x96B'
p230
tp231
bag1
(g2
(I0
tp232
g4
tp233
Rp234
(I1
(I3
tp235
g11
I00
S'\x99\xd6\xb1B\xd5IGB\xad\xa7\xf6B'
p236
tp237
bag1
(g2
(I0
tp238
g4
tp239
Rp240
(I1
(I3
tp241
g11
I00
S'#ZLB\xb3,\xbaB\xb3\x8f2B'
p242
tp243
bag1
(g2
(I0
tp244
g4
tp245
Rp246
(I1
(I3
tp247
g11
I00
S'Q\xa1\xabB_\xfd\x89B\xacW\x17C'
p248
tp249
bag1
(g2
(I0
tp250
g4
tp251
Rp252
(I1
(I3
tp253
g11
I00
S'QW\x9fB.iiB\xa7\xac#C'
p254
tp255
bag1
(g2
(I0
tp256
g4
tp257
Rp258
(I1
(I3
tp259
g11
I00
S'\x1e\x1d\xbcBX\xd6\xa3B\xf7E]B'
p260
tp261
bag1
(g2
(I0
tp262
g4
tp263
Rp264
(I1
(I3
tp265
g11
I00
S'\xf5\x87\xa5BJ*YBX\xc5\x0bC'
p266
tp267
bag1
(g2
(I0
tp268
g4
tp269
Rp270
(I1
(I3
tp271
g11
I00
S'\xd3\xd2\xa5BR\x8d\x91Bf\xc8\x0fC'
p272
tp273
bag1
(g2
(I0
tp274
g4
tp275
Rp276
(I1
(I3
tp277
g11
I00
S'\x91jDB\x19d\xefB8\xdf0B'
p278
tp279
bag1
(g2
(I0
tp280
g4
tp281
Rp282
(I1
(I3
tp283
g11
I00
S'\xe1\xe5\x92B\x96\xd9~B\xf03\x11B'
p284
tp285
bag1
(g2
(I0
tp286
g4
tp287
Rp288
(I1
(I3
tp289
g11
I00
S',\xd7\xb6B\x1aI\x80B\xb1|\xe5B'
p290
tp291
bag1
(g2
(I0
tp292
g4
tp293
Rp294
(I1
(I3
tp295
g11
I00
S'7\xe2\xb1B\xf5yFBs\xa9\xddB'
p296
tp297
bag1
(g2
(I0
tp298
g4
tp299
Rp300
(I1
(I3
tp301
g11
I00
S'\x90\xc7\xbcB\x1c\x16|B\xb6o\tC'
p302
tp303
bag1
(g2
(I0
tp304
g4
tp305
Rp306
(I1
(I3
tp307
g11
I00
S'F\xce:B\xfe\x82\x18Ck\x92<B'
p308
tp309
bag1
(g2
(I0
tp310
g4
tp311
Rp312
(I1
(I3
tp313
g11
I00
S"\xb4!\xacBe\xf7\x94B'\x02\x08C"
p314
tp315
bag1
(g2
(I0
tp316
g4
tp317
Rp318
(I1
(I3
tp319
g11
I00
S'l\xfc\xb1B9\\\x84Bz\x13\x9aB'
p320
tp321
bag1
(g2
(I0
tp322
g4
tp323
Rp324
(I1
(I3
tp325
g11
I00
S'+\xe8\x84B\xfb\x1dAB\xcdI\xfcB'
p326
tp327
bag1
(g2
(I0
tp328
g4
tp329
Rp330
(I1
(I3
tp331
g11
I00
S'p\xd9\xb4B\\\xf6^B7\xc3\x04C'
p332
tp333
bag1
(g2
(I0
tp334
g4
tp335
Rp336
(I1
(I3
tp337
g11
I00
S'\x8c\xf4\xa6BB9\x81B\xff9\x1dC'
p338
tp339
bag1
(g2
(I0
tp340
g4
tp341
Rp342
(I1
(I3
tp343
g11
I00
S'\x0cp\xa4B\xa5\xcc\x81BH\x8b\x10C'
p344
tp345
bag1
(g2
(I0
tp346
g4
tp347
Rp348
(I1
(I3
tp349
g11
I00
S'\xba\xba\x93B\x0e\xa4\x8aBR\x11\xebB'
p350
tp351
bag1
(g2
(I0
tp352
g4
tp353
Rp354
(I1
(I3
tp355
g11
I00
S'\xe8\x96-B\xba\xe5<C\x05B\x8fB'
p356
tp357
bag1
(g2
(I0
tp358
g4
tp359
Rp360
(I1
(I3
tp361
g11
I00
S"\xec'\xbeB\x90\x12\x8aB\xbe\xf3\xfcB"
p362
tp363
bag1
(g2
(I0
tp364
g4
tp365
Rp366
(I1
(I3
tp367
g11
I00
S'\x05e\xa7B\x1a@\x9aB\xc2n\xfbB'
p368
tp369
bag1
(g2
(I0
tp370
g4
tp371
Rp372
(I1
(I3
tp373
g11
I00
S'5\xcd\x88B\x96eEB\xab*\x1bC'
p374
tp375
bag1
(g2
(I0
tp376
g4
tp377
Rp378
(I1
(I3
tp379
g11
I00
S'\\"\x89B\xc1\xf0vB\xd76\xbcB'
p380
tp381
bag1
(g2
(I0
tp382
g4
tp383
Rp384
(I1
(I3
tp385
g11
I00
S'TK\x8bBd\nlB\xa9\xc1\xd5B'
p386
tp387
bag1
(g2
(I0
tp388
g4
tp389
Rp390
(I1
(I3
tp391
g11
I00
S'@\x9e\xa9B\x14\xf4sB\xfc\\\xfaB'
p392
tp393
ba(lp394
g1
(g2
(I0
tp395
g4
tp396
Rp397
(I1
(I3
tp398
g11
I00
S'{\xef\xd8@\xdb\x8b\xdc@\xaa\xa4\xfc@'
p399
tp400
bag1
(g2
(I0
tp401
g4
tp402
Rp403
(I1
(I3
tp404
g11
I00
S'\xcc\xa3\x96@\xdf\xe9\xdd@`\x7f\xe4@'
p405
tp406
bag1
(g2
(I0
tp407
g4
tp408
Rp409
(I1
(I3
tp410
g11
I00
S'\x11\xae\xd9@& \xe2@\x87x\xc5@'
p411
tp412
bag1
(g2
(I0
tp413
g4
tp414
Rp415
(I1
(I3
tp416
g11
I00
S'3"\xb5@\x06\xf2\xcc@p\x04\xf4@'
p417
tp418
bag1
(g2
(I0
tp419
g4
tp420
Rp421
(I1
(I3
tp422
g11
I00
S'\x81(\x18A;\xfa\x16A\xb5\x94\xce@'
p423
tp424
bag1
(g2
(I0
tp425
g4
tp426
Rp427
(I1
(I3
tp428
g11
I00
S'\xfc\x96\xc5@\xcf\xdc9A\xde\x89VA'
p429
tp430
bag1
(g2
(I0
tp431
g4
tp432
Rp433
(I1
(I3
tp434
g11
I00
S'\x94V9@\xcf{5@\x1a\xb0R@'
p435
tp436
bag1
(g2
(I0
tp437
g4
tp438
Rp439
(I1
(I3
tp440
g11
I00
S'\x85\xfd\tA\x9b_<@\xe9T\xd9@'
p441
tp442
bag1
(g2
(I0
tp443
g4
tp444
Rp445
(I1
(I3
tp446
g11
I00
S'\x9b\xae\xe7@;b\xf4@\xf4\xdc\xee@'
p447
tp448
bag1
(g2
(I0
tp449
g4
tp450
Rp451
(I1
(I3
tp452
g11
I00
S'\xc3\x98P@C\x06\\@%\xb4\x82@'
p453
tp454
bag1
(g2
(I0
tp455
g4
tp456
Rp457
(I1
(I3
tp458
g11
I00
S'\xb7\xfbC@\xd1\xc5&@\xfd\xb8C@'
p459
tp460
bag1
(g2
(I0
tp461
g4
tp462
Rp463
(I1
(I3
tp464
g11
I00
S'>`\x01A\x15\x81\x08A\xb6{\xeb@'
p465
tp466
bag1
(g2
(I0
tp467
g4
tp468
Rp469
(I1
(I3
tp470
g11
I00
S'\x11]P@\xdc8R@k8\x88@'
p471
tp472
bag1
(g2
(I0
tp473
g4
tp474
Rp475
(I1
(I3
tp476
g11
I00
S'\x95G\xf1?\x08\x9f\x13@P\xdf,@'
p477
tp478
bag1
(g2
(I0
tp479
g4
tp480
Rp481
(I1
(I3
tp482
g11
I00
S'\xaf\xd1\xe5@>\x8a\xfc@\xbf\x99\x11A'
p483
tp484
bag1
(g2
(I0
tp485
g4
tp486
Rp487
(I1
(I3
tp488
g11
I00
S'\x9f\x92\xab@\xfd\xf4\xaa@8G\x93@'
p489
tp490
bag1
(g2
(I0
tp491
g4
tp492
Rp493
(I1
(I3
tp494
g11
I00
S'\x88>\xb0@\x92\x14\x14A\x99\x94\x0eA'
p495
tp496
bag1
(g2
(I0
tp497
g4
tp498
Rp499
(I1
(I3
tp500
g11
I00
S'7St@\x98Q\x88@\\\xd2\x83@'
p501
tp502
bag1
(g2
(I0
tp503
g4
tp504
Rp505
(I1
(I3
tp506
g11
I00
S'ex;@\x01\xfe/@\xf8$\xbb@'
p507
tp508
bag1
(g2
(I0
tp509
g4
tp510
Rp511
(I1
(I3
tp512
g11
I00
S'\xc6;\xd7@\xd4<\xf2@\xde\x15\x9c@'
p513
tp514
bag1
(g2
(I0
tp515
g4
tp516
Rp517
(I1
(I3
tp518
g11
I00
S'2NV@\x8f\x87\x9bA3\xcd\x82A'
p519
tp520
bag1
(g2
(I0
tp521
g4
tp522
Rp523
(I1
(I3
tp524
g11
I00
S'\xd2\x940@\xa3a8@\xfa\r\x8f@'
p525
tp526
bag1
(g2
(I0
tp527
g4
tp528
Rp529
(I1
(I3
tp530
g11
I00
S'`\x04\xca@y\x9c\tA\x01\x0e\xfa@'
p531
tp532
bag1
(g2
(I0
tp533
g4
tp534
Rp535
(I1
(I3
tp536
g11
I00
S'\xcb9\xd3@\xddz\xcb@\x89O\xae@'
p537
tp538
bag1
(g2
(I0
tp539
g4
tp540
Rp541
(I1
(I3
tp542
g11
I00
S'\x1a^\x18AK9)Ar\xb3\x05A'
p543
tp544
bag1
(g2
(I0
tp545
g4
tp546
Rp547
(I1
(I3
tp548
g11
I00
S'\xfc_\xc0@\x96\x10\xea@\x88\xae\xb2@'
p549
tp550
bag1
(g2
(I0
tp551
g4
tp552
Rp553
(I1
(I3
tp554
g11
I00
S'%\xcd\xa2@4Y\x14A;\xa47A'
p555
tp556
bag1
(g2
(I0
tp557
g4
tp558
Rp559
(I1
(I3
tp560
g11
I00
S'\x93\xf6\xb7@\xda\xec\xa7@I\xd9\xc0@'
p561
tp562
bag1
(g2
(I0
tp563
g4
tp564
Rp565
(I1
(I3
tp566
g11
I00
S'\x83h\xbf@6\x8aDA\x00hDA'
p567
tp568
bag1
(g2
(I0
tp569
g4
tp570
Rp571
(I1
(I3
tp572
g11
I00
S'jy\x99@\x9a\xbe\xbf@\xba\x83o@'
p573
tp574
bag1
(g2
(I0
tp575
g4
tp576
Rp577
(I1
(I3
tp578
g11
I00
S'daY@\xdf9\x8c@\xc8=\\@'
p579
tp580
bag1
(g2
(I0
tp581
g4
tp582
Rp583
(I1
(I3
tp584
g11
I00
S'M\xeb/@\xf5\x10\x82Ar\xc9\x81A'
p585
tp586
bag1
(g2
(I0
tp587
g4
tp588
Rp589
(I1
(I3
tp590
g11
I00
S'9\xe4\x8a@[.\xb4@\xe8\x80\xc2@'
p591
tp592
bag1
(g2
(I0
tp593
g4
tp594
Rp595
(I1
(I3
tp596
g11
I00
S'VQ\x89@\xcfR\xa9@\x97\x98\xae@'
p597
tp598
bag1
(g2
(I0
tp599
g4
tp600
Rp601
(I1
(I3
tp602
g11
I00
S'\xe1\xea\x89@j\x10@A\xb3\xeeXA'
p603
tp604
bag1
(g2
(I0
tp605
g4
tp606
Rp607
(I1
(I3
tp608
g11
I00
S'\xca\x0c\xe7@\x8b}\x1fA\xdd6\x1dA'
p609
tp610
bag1
(g2
(I0
tp611
g4
tp612
Rp613
(I1
(I3
tp614
g11
I00
S'R\x85P@\xe5\xac1A@\x92)A'
p615
tp616
bag1
(g2
(I0
tp617
g4
tp618
Rp619
(I1
(I3
tp620
g11
I00
S'\xd0\xba\x8f@\x95F\x9c@\x92%]@'
p621
tp622
bag1
(g2
(I0
tp623
g4
tp624
Rp625
(I1
(I3
tp626
g11
I00
S'Z\x8c\x94@\xb6\xa4\xf6@\x031\x19A'
p627
tp628
bag1
(g2
(I0
tp629
g4
tp630
Rp631
(I1
(I3
tp632
g11
I00
S'\xaf|Y@wq\x19@\x90t\x19@'
p633
tp634
bag1
(g2
(I0
tp635
g4
tp636
Rp637
(I1
(I3
tp638
g11
I00
S'"\x95e@v\xce]@]0_@'
p639
tp640
bag1
(g2
(I0
tp641
g4
tp642
Rp643
(I1
(I3
tp644
g11
I00
S'\x8e \xf9@\x10c\x00A\xc6\x94\xd8@'
p645
tp646
bag1
(g2
(I0
tp647
g4
tp648
Rp649
(I1
(I3
tp650
g11
I00
S'\x01A\x8a@\xd2@R@\xec\xabv@'
p651
tp652
bag1
(g2
(I0
tp653
g4
tp654
Rp655
(I1
(I3
tp656
g11
I00
S'\xd9\xb1b@Iy\x14@\x85TB@'
p657
tp658
bag1
(g2
(I0
tp659
g4
tp660
Rp661
(I1
(I3
tp662
g11
I00
S'o&\x83@gD\x0bA\xa7K"A'
p663
tp664
bag1
(g2
(I0
tp665
g4
tp666
Rp667
(I1
(I3
tp668
g11
I00
S'\xa3\xf6\xbc@E\x9d\xde@s\x03\xed@'
p669
tp670
bag1
(g2
(I0
tp671
g4
tp672
Rp673
(I1
(I3
tp674
g11
I00
S'17\x89@hi{@adu@'
p675
tp676
bag1
(g2
(I0
tp677
g4
tp678
Rp679
(I1
(I3
tp680
g11
I00
S'E\x90\x9e@\xfb\x10\xc0@\xddKv@'
p681
tp682
bag1
(g2
(I0
tp683
g4
tp684
Rp685
(I1
(I3
tp686
g11
I00
S'\xc6\xcd\n@q\x1cM@\x0fun@'
p687
tp688
bag1
(g2
(I0
tp689
g4
tp690
Rp691
(I1
(I3
tp692
g11
I00
S'-F^@Y\xe36A\xd6\x96TA'
p693
tp694
bag1
(g2
(I0
tp695
g4
tp696
Rp697
(I1
(I3
tp698
g11
I00
S'\xf0\xfeY@\xc0\x99[@_\x80<@'
p699
tp700
bag1
(g2
(I0
tp701
g4
tp702
Rp703
(I1
(I3
tp704
g11
I00
S'+A\xe2@\x1d{\xb6@\xf5\x0c\xc3@'
p705
tp706
bag1
(g2
(I0
tp707
g4
tp708
Rp709
(I1
(I3
tp710
g11
I00
S'\x94\xb7\xe5@\n.\xfd@j7\xe4@'
p711
tp712
bag1
(g2
(I0
tp713
g4
tp714
Rp715
(I1
(I3
tp716
g11
I00
S'\xae\xafC@\x97\x86W@\xc0=>@'
p717
tp718
bag1
(g2
(I0
tp719
g4
tp720
Rp721
(I1
(I3
tp722
g11
I00
S'k\xc8G@\xd4\xbf.@\xda\x17&@'
p723
tp724
bag1
(g2
(I0
tp725
g4
tp726
Rp727
(I1
(I3
tp728
g11
I00
S'\xd99u@t\xe70@k\xf1m@'
p729
tp730
bag1
(g2
(I0
tp731
g4
tp732
Rp733
(I1
(I3
tp734
g11
I00
S'o\xc7\xbc@\xbb,\x85@\xd4\x96\x88@'
p735
tp736
bag1
(g2
(I0
tp737
g4
tp738
Rp739
(I1
(I3
tp740
g11
I00
S'z\x98F@l\xc8\x99A\xa3\x7f\x8bA'
p741
tp742
bag1
(g2
(I0
tp743
g4
tp744
Rp745
(I1
(I3
tp746
g11
I00
S'\xcc\t\x16@\xdd\x02\x9a@\x10\xc3o@'
p747
tp748
bag1
(g2
(I0
tp749
g4
tp750
Rp751
(I1
(I3
tp752
g11
I00
S'\x0el\x9f@\x16\xfc\x90@B\xcc\x82@'
p753
tp754
bag1
(g2
(I0
tp755
g4
tp756
Rp757
(I1
(I3
tp758
g11
I00
S'\xa7\x8a\xd0@\xed%\xda@\xa9\x98\xf3@'
p759
tp760
bag1
(g2
(I0
tp761
g4
tp762
Rp763
(I1
(I3
tp764
g11
I00
S'\xcai\xac@\xf5\xd8\x95@\xaf3\xb5@'
p765
tp766
bag1
(g2
(I0
tp767
g4
tp768
Rp769
(I1
(I3
tp770
g11
I00
S'>X\xc5@\xdf\xbb\x91@.W\x89@'
p771
tp772
bag1
(g2
(I0
tp773
g4
tp774
Rp775
(I1
(I3
tp776
g11
I00
S'9\x81\x8c@\xc4<L@\xae%j@'
p777
tp778
bac__builtin__
set
p779
((lp780
cnumpy.core.multiarray
scalar
p781
(g8
(S'i4'
p782
I0
I1
tp783
Rp784
(I3
S'<'
p785
NNNI-1
I-1
I0
tp786
bS' \x00\x00\x00'
p787
tp788
Rp789
ag781
(g784
S'!\x00\x00\x00'
p790
tp791
Rp792
ag781
(g784
S'%\x00\x00\x00'
p793
tp794
Rp795
ag781
(g784
S'*\x00\x00\x00'
p796
tp797
Rp798
ag781
(g784
S'.\x00\x00\x00'
p799
tp800
Rp801
ag781
(g784
S'/\x00\x00\x00'
p802
tp803
Rp804
ag781
(g784
S'0\x00\x00\x00'
p805
tp806
Rp807
ag781
(g784
S'5\x00\x00\x00'
p808
tp809
Rp810
ag781
(g784
S':\x00\x00\x00'
p811
tp812
Rp813
atp814
Rp815
g779
((lp816
I0
aI1
aI2
aI3
aI4
aI5
aI6
aI7
aI8
aI9
aI10
aI11
ag781
(g784
S'\x0c\x00\x00\x00'
p817
tp818
Rp819
aI13
aI14
aI15
aI16
aI17
aI18
aI19
aI20
aI21
aI22
aI23
aI24
aI25
aI26
aI27
aI28
aI29
aI30
aI31
aI34
aI35
aI36
aI38
aI39
aI40
aI41
aI43
aI44
aI45
aI49
aI50
aI51
aI52
aI54
aI55
aI56
aI57
aI59
aI60
ag781
(g784
S'=\x00\x00\x00'
p820
tp821
Rp822
aI62
ag781
(g784
S'?\x00\x00\x00'
p823
tp824
Rp825
atp826
Rp827
tp828
.